target datalayout = "e-m:e-p270:32:32-p271:32:32-p272:64:64-i64:64-i128:128-f80:128-n8:16:32:64-S128"
target triple = "x86_64-pc-linux-gnu"

%struct.jv_parser = type { ptr, i32, i32, i32, i32, i32, i32, ptr, i32, i32, %struct.jv, i32, %struct.jv, %struct.jv, ptr, i32, i32, i32, i32, %struct.dtoa_context, i32, i8 }
%struct.jv = type { i8, i8, i16, i32, %union.anon }
%union.anon = type { ptr }
%struct.dtoa_context = type { [8 x ptr], ptr }
%struct.__va_list_tag = type { i32, i32, ptr, ptr }

; Function Attrs: nounwind uwtable
define internal { i64, ptr } @make_error(ptr noundef %0, ptr noundef %1, ...) #0 {
  %3 = alloca %struct.jv, align 8
  %4 = alloca ptr, align 8
  %5 = alloca ptr, align 8
  %6 = alloca [1 x %struct.__va_list_tag], align 16
  %7 = alloca %struct.jv, align 8
  %8 = alloca %struct.jv, align 8
  %9 = alloca %struct.jv, align 8
  %10 = alloca %struct.jv, align 8
  %11 = alloca i32, align 4
  store ptr %0, ptr %4, align 8, !tbaa !8
  store ptr %1, ptr %5, align 8, !tbaa !37
  call void @llvm.lifetime.start.p0(i64 24, ptr %6) #6
  %12 = getelementptr inbounds [1 x %struct.__va_list_tag], ptr %6, i64 0, i64 0
  call void @llvm.va_start.p0(ptr %12)
  call void @llvm.lifetime.start.p0(i64 16, ptr %7) #6
  %13 = load ptr, ptr %5, align 8, !tbaa !37
  %14 = getelementptr inbounds [1 x %struct.__va_list_tag], ptr %6, i64 0, i64 0
  %15 = call { i64, ptr } @jv_string_vfmt(ptr noundef %13, ptr noundef %14)
  %16 = getelementptr inbounds nuw { i64, ptr }, ptr %7, i32 0, i32 0
  %17 = extractvalue { i64, ptr } %15, 0
  store i64 %17, ptr %16, align 8
  %18 = getelementptr inbounds nuw { i64, ptr }, ptr %7, i32 0, i32 1
  %19 = extractvalue { i64, ptr } %15, 1
  store ptr %19, ptr %18, align 8
  %20 = getelementptr inbounds [1 x %struct.__va_list_tag], ptr %6, i64 0, i64 0
  call void @llvm.va_end.p0(ptr %20)
  %21 = load ptr, ptr %4, align 8, !tbaa !8
  %22 = getelementptr inbounds nuw %struct.jv_parser, ptr %21, i32 0, i32 6
  %23 = load i32, ptr %22, align 4, !tbaa !11
  %24 = and i32 %23, 4
  %25 = icmp ne i32 %24, 0
  br i1 %25, label %26, label %69

26:                                               ; preds = %2
  %27 = call { i64, ptr } @jv_array()
  %28 = getelementptr inbounds nuw { i64, ptr }, ptr %9, i32 0, i32 0
  %29 = extractvalue { i64, ptr } %27, 0
  store i64 %29, ptr %28, align 8
  %30 = getelementptr inbounds nuw { i64, ptr }, ptr %9, i32 0, i32 1
  %31 = extractvalue { i64, ptr } %27, 1
  store ptr %31, ptr %30, align 8
  %32 = getelementptr inbounds nuw { i64, ptr }, ptr %9, i32 0, i32 0
  %33 = load i64, ptr %32, align 8
  %34 = getelementptr inbounds nuw { i64, ptr }, ptr %9, i32 0, i32 1
  %35 = load ptr, ptr %34, align 8
  %36 = getelementptr inbounds nuw { i64, ptr }, ptr %7, i32 0, i32 0
  %37 = load i64, ptr %36, align 8
  %38 = getelementptr inbounds nuw { i64, ptr }, ptr %7, i32 0, i32 1
  %39 = load ptr, ptr %38, align 8
  %40 = call { i64, ptr } @jv_array_append(i64 %33, ptr %35, i64 %37, ptr %39)
  %41 = getelementptr inbounds nuw { i64, ptr }, ptr %8, i32 0, i32 0
  %42 = extractvalue { i64, ptr } %40, 0
  store i64 %42, ptr %41, align 8
  %43 = getelementptr inbounds nuw { i64, ptr }, ptr %8, i32 0, i32 1
  %44 = extractvalue { i64, ptr } %40, 1
  store ptr %44, ptr %43, align 8
  %45 = load ptr, ptr %4, align 8, !tbaa !8
  %46 = getelementptr inbounds nuw %struct.jv_parser, ptr %45, i32 0, i32 10
  %47 = getelementptr inbounds nuw { i64, ptr }, ptr %46, i32 0, i32 0
  %48 = load i64, ptr %47, align 8
  %49 = getelementptr inbounds nuw { i64, ptr }, ptr %46, i32 0, i32 1
  %50 = load ptr, ptr %49, align 8
  %51 = call { i64, ptr } @jv_copy(i64 %48, ptr %50)
  %52 = getelementptr inbounds nuw { i64, ptr }, ptr %10, i32 0, i32 0
  %53 = extractvalue { i64, ptr } %51, 0
  store i64 %53, ptr %52, align 8
  %54 = getelementptr inbounds nuw { i64, ptr }, ptr %10, i32 0, i32 1
  %55 = extractvalue { i64, ptr } %51, 1
  store ptr %55, ptr %54, align 8
  %56 = getelementptr inbounds nuw { i64, ptr }, ptr %8, i32 0, i32 0
  %57 = load i64, ptr %56, align 8
  %58 = getelementptr inbounds nuw { i64, ptr }, ptr %8, i32 0, i32 1
  %59 = load ptr, ptr %58, align 8
  %60 = getelementptr inbounds nuw { i64, ptr }, ptr %10, i32 0, i32 0
  %61 = load i64, ptr %60, align 8
  %62 = getelementptr inbounds nuw { i64, ptr }, ptr %10, i32 0, i32 1
  %63 = load ptr, ptr %62, align 8
  %64 = call { i64, ptr } @jv_array_append(i64 %57, ptr %59, i64 %61, ptr %63)
  %65 = getelementptr inbounds nuw { i64, ptr }, ptr %3, i32 0, i32 0
  %66 = extractvalue { i64, ptr } %64, 0
  store i64 %66, ptr %65, align 8
  %67 = getelementptr inbounds nuw { i64, ptr }, ptr %3, i32 0, i32 1
  %68 = extractvalue { i64, ptr } %64, 1
  store ptr %68, ptr %67, align 8
  store i32 1, ptr %11, align 4
  br label %79

69:                                               ; preds = %2
  %70 = getelementptr inbounds nuw { i64, ptr }, ptr %7, i32 0, i32 0
  %71 = load i64, ptr %70, align 8
  %72 = getelementptr inbounds nuw { i64, ptr }, ptr %7, i32 0, i32 1
  %73 = load ptr, ptr %72, align 8
  %74 = call { i64, ptr } @jv_invalid_with_msg(i64 %71, ptr %73)
  %75 = getelementptr inbounds nuw { i64, ptr }, ptr %3, i32 0, i32 0
  %76 = extractvalue { i64, ptr } %74, 0
  store i64 %76, ptr %75, align 8
  %77 = getelementptr inbounds nuw { i64, ptr }, ptr %3, i32 0, i32 1
  %78 = extractvalue { i64, ptr } %74, 1
  store ptr %78, ptr %77, align 8
  store i32 1, ptr %11, align 4
  br label %79

79:                                               ; preds = %69, %26
  call void @llvm.lifetime.end.p0(i64 16, ptr %7) #6
  call void @llvm.lifetime.end.p0(i64 24, ptr %6) #6
  %80 = load { i64, ptr }, ptr %3, align 8
  ret { i64, ptr } %80
}