; Function Attrs: nounwind uwtable
define internal { i64, ptr } @make_error(ptr noundef readonly captures(none) %0, ptr noundef %1, ...) unnamed_addr #0 {
  %3 = alloca [1 x %struct.__va_list_tag], align 16
  call void @llvm.lifetime.start.p0(i64 24, ptr nonnull %3) #9
  call void @llvm.va_start.p0(ptr nonnull %3)
  %4 = call { i64, ptr } @jv_string_vfmt(ptr noundef %1, ptr noundef nonnull %3) #9
  %5 = extractvalue { i64, ptr } %4, 0
  %6 = extractvalue { i64, ptr } %4, 1
  call void @llvm.va_end.p0(ptr nonnull %3)
  %7 = getelementptr inbounds nuw i8, ptr %0, i64 28
  %8 = load i32, ptr %7, align 4, !tbaa !4
  %9 = and i32 %8, 4
  %.not = icmp eq i32 %9, 0
  br i1 %.not, label %25, label %10

10:                                               ; preds = %2
  %11 = call { i64, ptr } @jv_array() #9
  %12 = extractvalue { i64, ptr } %11, 0
  %13 = extractvalue { i64, ptr } %11, 1
  %14 = call { i64, ptr } @jv_array_append(i64 %12, ptr %13, i64 %5, ptr %6) #9
  %15 = extractvalue { i64, ptr } %14, 0
  %16 = extractvalue { i64, ptr } %14, 1
  %17 = getelementptr inbounds nuw i8, ptr %0, i64 48
  %18 = load i64, ptr %17, align 8
  %19 = getelementptr inbounds nuw i8, ptr %0, i64 56
  %20 = load ptr, ptr %19, align 8
  %21 = call { i64, ptr } @jv_copy(i64 %18, ptr %20) #9
  %22 = extractvalue { i64, ptr } %21, 0
  %23 = extractvalue { i64, ptr } %21, 1
  %24 = call { i64, ptr } @jv_array_append(i64 %15, ptr %16, i64 %22, ptr %23) #9
  br label %27

25:                                               ; preds = %2
  %26 = call { i64, ptr } @jv_invalid_with_msg(i64 %5, ptr %6) #9
  br label %27

27:                                               ; preds = %25, %10
  %.pn = phi { i64, ptr } [ %24, %10 ], [ %26, %25 ]
  call void @llvm.lifetime.end.p0(i64 24, ptr nonnull %3) #9
  ret { i64, ptr } %.pn
}